(dp0
S'BRACA'
p1
(dp2
I35
(I1
I70
tp3
sI36
(I71
I140
tp4
sI37
(I141
I210
tp5
sI38
(I211
I280
tp6
sI39
(I281
I350
tp7
sI40
(I351
I420
tp8
sI41
(I421
I490
tp9
sI42
(I491
I560
tp10
sI43
(I561
I630
tp11
sI44
(I631
I700
tp12
sI45
(I701
I770
tp13
sI46
(I771
I840
tp14
sI47
(I841
I910
tp15
sI48
(I911
I980
tp16
sI49
(I981
I1050
tp17
sI50
(I1051
I1120
tp18
sI51
(I1121
I1190
tp19
sI52
(I1191
I1260
tp20
sI53
(I1261
I1330
tp21
sI54
(I1331
I1400
tp22
sI55
(I1401
I1470
tp23
sI56
(I1471
I1540
tp24
sI57
(I1541
I1610
tp25
sI58
(I1611
I1680
tp26
sI59
(I1681
I1750
tp27
sI60
(I1751
I1820
tp28
sI61
(I1821
I1890
tp29
sI62
(I1891
I1960
tp30
sI63
(I1961
I2030
tp31
sI64
(I2031
I2100
tp32
sI65
(I2101
I2170
tp33
sI66
(I2171
I2195
tp34
ssS'Gene1'
p35
(dp36
I2
(I1
I70
tp37
sI3
(I71
I140
tp38
sI4
(I141
I210
tp39
sI5
(I211
I280
tp40
sI6
(I281
I350
tp41
sI7
(I351
I420
tp42
sI8
(I421
I490
tp43
sI9
(I491
I560
tp44
sI10
(I561
I630
tp45
sI11
(I631
I700
tp46
sI12
(I701
I770
tp47
sI13
(I771
I840
tp48
sI14
(I841
I910
tp49
sI15
(I911
I980
tp50
sI16
(I981
I1050
tp51
sI17
(I1051
I1120
tp52
sI18
(I1121
I1190
tp53
sI19
(I1191
I1260
tp54
sI20
(I1261
I1330
tp55
sI21
(I1331
I1400
tp56
sI22
(I1401
I1470
tp57
sI23
(I1471
I1540
tp58
sI24
(I1541
I1610
tp59
sI25
(I1611
I1680
tp60
sI26
(I1681
I1750
tp61
sI27
(I1751
I1820
tp62
sI28
(I1821
I1890
tp63
sI29
(I1891
I1960
tp64
sI30
(I1961
I2030
tp65
sI31
(I2031
I2055
tp66
ss.